; Function Attrs: nounwind uwtable
define noalias noundef ptr @Abc_SuppGenPairs2(i32 noundef %0, i32 noundef %1) local_unnamed_addr #0 {
  %3 = tail call noalias dereferenceable_or_null(16) ptr @malloc(i64 noundef 16) #22
  %4 = getelementptr inbounds nuw i8, ptr %3, i64 4
  store i32 0, ptr %4, align 4, !tbaa !3
  store i32 1000, ptr %3, align 8, !tbaa !10
  %5 = tail call noalias dereferenceable_or_null(8000) ptr @malloc(i64 noundef 8000) #22
  %6 = getelementptr inbounds nuw i8, ptr %3, i64 8
  store ptr %5, ptr %6, align 8, !tbaa !11
  %.not17 = icmp eq i32 %1, 31
  br i1 %.not17, label %._crit_edge, label %.lr.ph.preheader

.lr.ph.preheader:                                 ; preds = %2
  %7 = shl nuw nsw i32 1, %1
  %wide.trip.count = zext nneg i32 %7 to i64
  br label %.lr.ph

.lr.ph:                                           ; preds = %.lr.ph.preheader, %39
  %8 = phi ptr [ %5, %.lr.ph.preheader ], [ %.pre.i20, %39 ]
  %9 = phi i32 [ 1000, %.lr.ph.preheader ], [ %40, %39 ]
  %10 = phi i32 [ 0, %.lr.ph.preheader ], [ %41, %39 ]
  %indvars.iv = phi i64 [ 0, %.lr.ph.preheader ], [ %indvars.iv.next, %39 ]
  %11 = trunc nuw nsw i64 %indvars.iv to i32
  %12 = tail call range(i32 0, 32) i32 @llvm.ctpop.i32(i32 %11)
  br label %13

13:                                               ; preds = %13, %.lr.ph
  %.014 = phi i32 [ 1, %.lr.ph ], [ %16, %13 ]
  %.not = icmp sgt i32 %.014, %0
  %14 = shl nuw nsw i32 %.014, 1
  %15 = icmp eq i32 %12, %14
  %or.cond = select i1 %.not, i1 true, i1 %15
  %16 = add nuw nsw i32 %.014, 1
  br i1 %or.cond, label %17, label %13, !llvm.loop !24

17:                                               ; preds = %13
  br i1 %.not, label %39, label %18

18:                                               ; preds = %17
  %19 = icmp eq i32 %10, %9
  br i1 %19, label %20, label %Vec_WrdPush.exit

20:                                               ; preds = %18
  %21 = icmp slt i32 %9, 16
  br i1 %21, label %22, label %27

22:                                               ; preds = %20
  %.not9.i.i = icmp eq ptr %8, null
  br i1 %.not9.i.i, label %25, label %23

23:                                               ; preds = %22
  %24 = tail call dereferenceable_or_null(128) ptr @realloc(ptr noundef nonnull %8, i64 noundef 128) #23
  br label %Vec_WrdPush.exit.sink.split

25:                                               ; preds = %22
  %26 = tail call noalias dereferenceable_or_null(128) ptr @malloc(i64 noundef 128) #22
  br label %Vec_WrdPush.exit.sink.split

27:                                               ; preds = %20
  %28 = shl nuw nsw i32 %9, 1
  %.not9.i9.i = icmp eq ptr %8, null
  %29 = zext nneg i32 %28 to i64
  %30 = shl nuw nsw i64 %29, 3
  br i1 %.not9.i9.i, label %33, label %31

31:                                               ; preds = %27
  %32 = tail call ptr @realloc(ptr noundef nonnull %8, i64 noundef %30) #23
  br label %Vec_WrdPush.exit.sink.split

33:                                               ; preds = %27
  %34 = tail call noalias ptr @malloc(i64 noundef %30) #22
  br label %Vec_WrdPush.exit.sink.split

Vec_WrdPush.exit.sink.split:                      ; preds = %31, %33, %23, %25
  %.sink22 = phi ptr [ %24, %23 ], [ %26, %25 ], [ %32, %31 ], [ %34, %33 ]
  %.sink = phi i32 [ 16, %23 ], [ 16, %25 ], [ %28, %31 ], [ %28, %33 ]
  store ptr %.sink22, ptr %6, align 8, !tbaa !11
  store i32 %.sink, ptr %3, align 8, !tbaa !10
  br label %Vec_WrdPush.exit

Vec_WrdPush.exit:                                 ; preds = %Vec_WrdPush.exit.sink.split, %18
  %.pre.i21 = phi ptr [ %8, %18 ], [ %.sink22, %Vec_WrdPush.exit.sink.split ]
  %35 = phi i32 [ %9, %18 ], [ %.sink, %Vec_WrdPush.exit.sink.split ]
  %36 = add nsw i32 %10, 1
  store i32 %36, ptr %4, align 4, !tbaa !3
  %37 = sext i32 %10 to i64
  %38 = getelementptr inbounds i64, ptr %.pre.i21, i64 %37
  store i64 %indvars.iv, ptr %38, align 8, !tbaa !12
  br label %39

39:                                               ; preds = %17, %Vec_WrdPush.exit
  %.pre.i20 = phi ptr [ %8, %17 ], [ %.pre.i21, %Vec_WrdPush.exit ]
  %40 = phi i32 [ %9, %17 ], [ %35, %Vec_WrdPush.exit ]
  %41 = phi i32 [ %10, %17 ], [ %36, %Vec_WrdPush.exit ]
  %indvars.iv.next = add nuw nsw i64 %indvars.iv, 1
  %exitcond.not = icmp eq i64 %indvars.iv.next, %wide.trip.count
  br i1 %exitcond.not, label %._crit_edge, label %.lr.ph, !llvm.loop !25

._crit_edge:                                      ; preds = %39, %2
  ret ptr %3
}